; Function Attrs: nounwind sspstrong uwtable
define hidden i64 @rb_int_cmp(i64 noundef %0, i64 noundef %1) #2 {
  %3 = and i64 %0, 1
  %.not = icmp eq i64 %3, 0
  br i1 %.not, label %27, label %4

4:                                                ; preds = %2
  %5 = icmp eq i64 %0, %1
  br i1 %5, label %fix_cmp.exit, label %6

6:                                                ; preds = %4
  %7 = and i64 %1, 1
  %.not.i = icmp eq i64 %7, 0
  br i1 %.not.i, label %12, label %8

8:                                                ; preds = %6
  %9 = ashr i64 %0, 1
  %10 = ashr i64 %1, 1
  %11 = icmp sgt i64 %9, %10
  %..i = select i1 %11, i64 3, i64 -1
  br label %fix_cmp.exit

12:                                               ; preds = %6
  %13 = icmp eq i64 %1, 0
  %14 = and i64 %1, 6
  %15 = icmp ne i64 %14, 0
  %16 = or i1 %13, %15
  br i1 %16, label %rbimpl_RB_TYPE_P_fastpath.exit.thread.i, label %rbimpl_RB_TYPE_P_fastpath.exit.i

rbimpl_RB_TYPE_P_fastpath.exit.i:                 ; preds = %12
  %17 = inttoptr i64 %1 to ptr
  %18 = load i64, ptr %17, align 8, !tbaa !11
  %19 = and i64 %18, 31
  switch i64 %19, label %RB_FLOAT_TYPE_P.exit.thread22.i [
    i64 10, label %20
    i64 4, label %RB_FLOAT_TYPE_P.exit.thread.i
  ]

20:                                               ; preds = %rbimpl_RB_TYPE_P_fastpath.exit.i
  %21 = tail call i64 @rb_big_cmp(i64 noundef %1, i64 noundef %0) #26
  switch i64 %21, label %23 [
    i64 3, label %fix_cmp.exit
    i64 -1, label %22
  ]

22:                                               ; preds = %20
  br label %fix_cmp.exit

23:                                               ; preds = %20
  br label %fix_cmp.exit

rbimpl_RB_TYPE_P_fastpath.exit.thread.i:          ; preds = %12
  %24 = and i64 %1, 2
  %.not24.i = icmp eq i64 %24, 0
  br i1 %.not24.i, label %RB_FLOAT_TYPE_P.exit.thread22.i, label %RB_FLOAT_TYPE_P.exit.thread.i

RB_FLOAT_TYPE_P.exit.thread.i:                    ; preds = %rbimpl_RB_TYPE_P_fastpath.exit.thread.i, %rbimpl_RB_TYPE_P_fastpath.exit.i
  %25 = tail call i64 @rb_integer_float_cmp(i64 noundef %0, i64 noundef %1) #26
  br label %fix_cmp.exit

RB_FLOAT_TYPE_P.exit.thread22.i:                  ; preds = %rbimpl_RB_TYPE_P_fastpath.exit.thread.i, %rbimpl_RB_TYPE_P_fastpath.exit.i
  %26 = tail call i64 @rb_num_coerce_cmp(i64 noundef %0, i64 noundef %1, i64 noundef 135)
  br label %fix_cmp.exit

27:                                               ; preds = %2
  %28 = icmp eq i64 %0, 0
  %29 = and i64 %0, 6
  %30 = icmp ne i64 %29, 0
  %31 = or i1 %28, %30
  br i1 %31, label %rbimpl_RB_TYPE_P_fastpath.exit.thread, label %rbimpl_RB_TYPE_P_fastpath.exit

rbimpl_RB_TYPE_P_fastpath.exit:                   ; preds = %27
  %32 = inttoptr i64 %0 to ptr
  %33 = load i64, ptr %32, align 8, !tbaa !11
  %34 = and i64 %33, 31
  %35 = icmp eq i64 %34, 10
  br i1 %35, label %36, label %rbimpl_RB_TYPE_P_fastpath.exit.thread

36:                                               ; preds = %rbimpl_RB_TYPE_P_fastpath.exit
  %37 = tail call i64 @rb_big_cmp(i64 noundef %0, i64 noundef %1) #26
  br label %fix_cmp.exit

rbimpl_RB_TYPE_P_fastpath.exit.thread:            ; preds = %27, %rbimpl_RB_TYPE_P_fastpath.exit
  %38 = load i64, ptr @rb_eNotImpError, align 8, !tbaa !7
  %39 = tail call ptr @rb_obj_classname(i64 noundef %0) #26
  tail call void (i64, ptr, ...) @rb_raise(i64 noundef %38, ptr noundef nonnull @.str.23, ptr noundef %39) #25
  unreachable

fix_cmp.exit:                                     ; preds = %RB_FLOAT_TYPE_P.exit.thread22.i, %RB_FLOAT_TYPE_P.exit.thread.i, %23, %22, %20, %8, %4, %36
  %.0 = phi i64 [ %37, %36 ], [ %25, %RB_FLOAT_TYPE_P.exit.thread.i ], [ %26, %RB_FLOAT_TYPE_P.exit.thread22.i ], [ 1, %4 ], [ %..i, %8 ], [ %21, %23 ], [ 3, %22 ], [ -1, %20 ]
  ret i64 %.0
}